; ModuleID = 'source-C-CXX/36/1033.c'
source_filename = "source-C-CXX/36/1033.c"
target datalayout = "e-m:e-p270:32:32-p271:32:32-p272:64:64-i64:64-f80:128-n8:16:32:64-S128"
target triple = "x86_64-pc-linux-gnu"

@.str = private unnamed_addr constant [3 x i8] c"%d\00", align 1
@.str.1 = private unnamed_addr constant [3 x i8] c"%s\00", align 1
@.str.2 = private unnamed_addr constant [4 x i8] c"%c\0A\00", align 1
@str = private unnamed_addr constant [3 x i8] c"no\00", align 1

; Function Attrs: nofree nounwind sspstrong uwtable
define dso_local i32 @main() local_unnamed_addr #0 {
  %1 = alloca i32, align 4
  %2 = alloca [5000 x i8], align 16
  %3 = bitcast i32* %1 to i8*
  call void @llvm.lifetime.start.p0i8(i64 4, i8* nonnull %3) #4
  %4 = getelementptr inbounds [5000 x i8], [5000 x i8]* %2, i64 0, i64 0
  call void @llvm.lifetime.start.p0i8(i64 5000, i8* nonnull %4) #4
  %5 = call i32 (i8*, ...) @__isoc99_scanf(i8* getelementptr inbounds ([3 x i8], [3 x i8]* @.str, i64 0, i64 0), i32* nonnull %1)
  %6 = load i32, i32* %1, align 4, !tbaa !5
  %7 = icmp slt i32 %6, 1
  br i1 %7, label %43, label %8

8:                                                ; preds = %0, %39
  %9 = phi i32 [ %40, %39 ], [ 1, %0 ]
  %10 = call i32 (i8*, ...) @__isoc99_scanf(i8* getelementptr inbounds ([3 x i8], [3 x i8]* @.str.1, i64 0, i64 0), [5000 x i8]* nonnull %2)
  %11 = load i8, i8* %4, align 16
  %12 = icmp eq i8 %11, 0
  br i1 %12, label %37, label %17

13:                                               ; preds = %31
  %14 = getelementptr inbounds [5000 x i8], [5000 x i8]* %2, i64 0, i64 %33
  %15 = load i8, i8* %14, align 1, !tbaa !9
  %16 = icmp eq i8 %15, 0
  br i1 %16, label %37, label %17, !llvm.loop !10

17:                                               ; preds = %8, %13
  %18 = phi i64 [ %33, %13 ], [ 0, %8 ]
  %19 = phi i8 [ %15, %13 ], [ %11, %8 ]
  br label %20

20:                                               ; preds = %17, %20
  %21 = phi i64 [ 0, %17 ], [ %27, %20 ]
  %22 = phi i8 [ %11, %17 ], [ %29, %20 ]
  %23 = phi i32 [ 0, %17 ], [ %26, %20 ]
  %24 = icmp eq i8 %19, %22
  %25 = zext i1 %24 to i32
  %26 = add nuw nsw i32 %23, %25
  %27 = add nuw nsw i64 %21, 1
  %28 = getelementptr inbounds [5000 x i8], [5000 x i8]* %2, i64 0, i64 %27
  %29 = load i8, i8* %28, align 1, !tbaa !9
  %30 = icmp eq i8 %29, 0
  br i1 %30, label %31, label %20, !llvm.loop !12

31:                                               ; preds = %20
  %32 = icmp eq i32 %26, 1
  %33 = add nuw i64 %18, 1
  br i1 %32, label %34, label %13

34:                                               ; preds = %31
  %35 = sext i8 %19 to i32
  %36 = call i32 (i8*, ...) @printf(i8* nonnull dereferenceable(1) getelementptr inbounds ([4 x i8], [4 x i8]* @.str.2, i64 0, i64 0), i32 %35)
  br label %39

37:                                               ; preds = %13, %8
  %38 = call i32 @puts(i8* nonnull dereferenceable(1) getelementptr inbounds ([3 x i8], [3 x i8]* @str, i64 0, i64 0))
  br label %39

39:                                               ; preds = %34, %37
  %40 = add nuw nsw i32 %9, 1
  %41 = load i32, i32* %1, align 4, !tbaa !5
  %42 = icmp slt i32 %9, %41
  br i1 %42, label %8, label %43, !llvm.loop !13

43:                                               ; preds = %39, %0
  call void @llvm.lifetime.end.p0i8(i64 5000, i8* nonnull %4) #4
  call void @llvm.lifetime.end.p0i8(i64 4, i8* nonnull %3) #4
  ret i32 0
}

; Function Attrs: argmemonly mustprogress nofree nosync nounwind willreturn
declare void @llvm.lifetime.start.p0i8(i64 immarg, i8* nocapture) #1

; Function Attrs: nofree nounwind
declare noundef i32 @__isoc99_scanf(i8* nocapture noundef readonly, ...) local_unnamed_addr #2

; Function Attrs: nofree nounwind
declare noundef i32 @printf(i8* nocapture noundef readonly, ...) local_unnamed_addr #2

; Function Attrs: argmemonly mustprogress nofree nosync nounwind willreturn
declare void @llvm.lifetime.end.p0i8(i64 immarg, i8* nocapture) #1

; Function Attrs: nofree nounwind
declare noundef i32 @puts(i8* nocapture noundef readonly) local_unnamed_addr #3


!llvm.module.flags = !{!0, !1, !2, !3}
!llvm.ident = !{!4}

!0 = !{i32 1, !"wchar_size", i32 4}
!1 = !{i32 7, !"PIC Level", i32 2}
!2 = !{i32 7, !"PIE Level", i32 2}
!3 = !{i32 7, !"uwtable", i32 1}
!4 = !{!"clang version 13.0.0"}
!5 = !{!6, !6, i64 0}
!6 = !{!"int", !7, i64 0}
!7 = !{!"omnipotent char", !8, i64 0}
!8 = !{!"Simple C/C++ TBAA"}
!9 = !{!7, !7, i64 0}
!10 = distinct !{!10, !11}
!11 = !{!"llvm.loop.mustprogress"}
!12 = distinct !{!12, !11}
!13 = distinct !{!13, !11}
